; Function Attrs: mustprogress uwtable
define internal fastcc noundef ptr @_ZN7testing8internalL24ParseGoogleMockFlagValueEPKcS2_b(ptr noundef readonly %str, ptr noundef %flag, i1 noundef zeroext %def_optional) unnamed_addr #3 personality ptr @__gxx_personality_v0 {
entry:
  %flag_str = alloca %"class.std::__cxx11::basic_string", align 8
  %ref.tmp = alloca %"class.std::__cxx11::basic_string", align 8
  %ref.tmp2 = alloca %"class.std::allocator", align 1
  %cmp = icmp eq ptr %str, null
  %cmp1 = icmp eq ptr %flag, null
  %or.cond = or i1 %cmp, %cmp1
  br i1 %or.cond, label %return, label %if.end

if.end:                                           ; preds = %entry
  call void @_ZNSaIcEC1Ev(ptr noundef nonnull align 1 dereferenceable(1) %ref.tmp2) #26
  %call.i9 = invoke noundef ptr @_ZNSt7__cxx1112basic_stringIcSt11char_traitsIcESaIcEE13_M_local_dataEv(ptr noundef nonnull align 8 dereferenceable(32) %ref.tmp)
          to label %call.i.noexc unwind label %lpad

call.i.noexc:                                     ; preds = %if.end
  invoke void @_ZNSt7__cxx1112basic_stringIcSt11char_traitsIcESaIcEE12_Alloc_hiderC1EPcRKS3_(ptr noundef nonnull align 8 dereferenceable(8) %ref.tmp, ptr noundef %call.i9, ptr noundef nonnull align 1 dereferenceable(1) %ref.tmp2)
          to label %.noexc unwind label %lpad

.noexc:                                           ; preds = %call.i.noexc
  invoke void @_ZNSt7__cxx1112basic_stringIcSt11char_traitsIcESaIcEE12_M_constructIPKcEEvT_S8_St20forward_iterator_tag(ptr noundef nonnull align 8 dereferenceable(32) %ref.tmp, ptr noundef nonnull @.str.121, ptr noundef nonnull getelementptr inbounds ([9 x i8], ptr @.str.121, i64 0, i64 8))
          to label %invoke.cont unwind label %lpad.i

lpad.i:                                           ; preds = %.noexc
  %0 = landingpad { ptr, i32 }
          cleanup
  call void @_ZNSaIcED2Ev(ptr noundef nonnull align 1 dereferenceable(1) %ref.tmp) #26
  br label %ehcleanup

invoke.cont:                                      ; preds = %.noexc
  %call.i11 = invoke noundef nonnull align 8 dereferenceable(32) ptr @_ZNSt7__cxx1112basic_stringIcSt11char_traitsIcESaIcEE6appendEPKc(ptr noundef nonnull align 8 dereferenceable(32) %ref.tmp, ptr noundef nonnull %flag)
          to label %invoke.cont4 unwind label %lpad3

invoke.cont4:                                     ; preds = %invoke.cont
  call void @_ZNSt7__cxx1112basic_stringIcSt11char_traitsIcESaIcEEC1EOS4_(ptr noundef nonnull align 8 dereferenceable(32) %flag_str, ptr noundef nonnull align 8 dereferenceable(32) %call.i11) #26
  call void @_ZNSt7__cxx1112basic_stringIcSt11char_traitsIcESaIcEED1Ev(ptr noundef nonnull align 8 dereferenceable(32) %ref.tmp) #26
  call void @_ZNSaIcED1Ev(ptr noundef nonnull align 1 dereferenceable(1) %ref.tmp2) #26
  %call = call noundef i64 @_ZNKSt7__cxx1112basic_stringIcSt11char_traitsIcESaIcEE6lengthEv(ptr noundef nonnull align 8 dereferenceable(32) %flag_str) #26
  %call5 = call noundef ptr @_ZNKSt7__cxx1112basic_stringIcSt11char_traitsIcESaIcEE5c_strEv(ptr noundef nonnull align 8 dereferenceable(32) %flag_str) #26
  %call6 = call i32 @strncmp(ptr noundef nonnull %str, ptr noundef %call5, i64 noundef %call) #29
  %cmp7.not = icmp eq i32 %call6, 0
  br i1 %cmp7.not, label %if.end9, label %cleanup

lpad:                                             ; preds = %call.i.noexc, %if.end
  %1 = landingpad { ptr, i32 }
          cleanup
  br label %ehcleanup

lpad3:                                            ; preds = %invoke.cont
  %2 = landingpad { ptr, i32 }
          cleanup
  call void @_ZNSt7__cxx1112basic_stringIcSt11char_traitsIcESaIcEED1Ev(ptr noundef nonnull align 8 dereferenceable(32) %ref.tmp) #26
  br label %ehcleanup

ehcleanup:                                        ; preds = %lpad, %lpad.i, %lpad3
  %.pn = phi { ptr, i32 } [ %2, %lpad3 ], [ %1, %lpad ], [ %0, %lpad.i ]
  call void @_ZNSaIcED1Ev(ptr noundef nonnull align 1 dereferenceable(1) %ref.tmp2) #26
  resume { ptr, i32 } %.pn

if.end9:                                          ; preds = %invoke.cont4
  %add.ptr = getelementptr inbounds i8, ptr %str, i64 %call
  %.pre = load i8, ptr %add.ptr, align 1
  %cmp10 = icmp eq i8 %.pre, 0
  %or.cond12 = select i1 %def_optional, i1 %cmp10, i1 false
  br i1 %or.cond12, label %cleanup, label %if.end12

if.end12:                                         ; preds = %if.end9
  %cmp15.not = icmp eq i8 %.pre, 61
  %add.ptr18 = getelementptr inbounds i8, ptr %add.ptr, i64 1
  %spec.select = select i1 %cmp15.not, ptr %add.ptr18, ptr null
  br label %cleanup

cleanup:                                          ; preds = %if.end9, %if.end12, %invoke.cont4
  %retval.0 = phi ptr [ null, %invoke.cont4 ], [ %spec.select, %if.end12 ], [ %add.ptr, %if.end9 ]
  call void @_ZNSt7__cxx1112basic_stringIcSt11char_traitsIcESaIcEED1Ev(ptr noundef nonnull align 8 dereferenceable(32) %flag_str) #26
  br label %return

return:                                           ; preds = %entry, %cleanup
  %retval.1 = phi ptr [ %retval.0, %cleanup ], [ null, %entry ]
  ret ptr %retval.1
}